; Function Attrs: nofree nounwind uwtable
define internal void @__cxx_global_var_init.4() #0 section ".text.startup" comdat($_ZN3nix5noPosE) personality ptr @__gxx_personality_v0 {
  %1 = load atomic i8, ptr @_ZGVN3nix5noPosE acquire, align 8
  %2 = icmp eq i8 %1, 0
  br i1 %2, label %3, label %6

3:                                                ; preds = %0
  %4 = tail call i32 @__cxa_guard_acquire(ptr nonnull @_ZGVN3nix5noPosE) #26
  %.not = icmp eq i32 %4, 0
  br i1 %.not, label %6, label %5

5:                                                ; preds = %3
  store i32 0, ptr @_ZN3nix5noPosE, align 4
  tail call void @__cxa_guard_release(ptr nonnull @_ZGVN3nix5noPosE) #26
  br label %6

6:                                                ; preds = %5, %3, %0
  ret void
}